(lp0
(S'cppflags'
p1
ccopy_reg
_reconstructor
p2
(cino.utils
SpaceList
p3
c__builtin__
list
p4
(lp5
S'-mmcu=atmega328p'
p6
aS'-DF_CPU=16000000L'
p7
aS'-DARDUINO=101'
p8
aS'-I/usr/share/arduino/hardware/arduino/cores/arduino'
p9
aS'-ffunction-sections'
p10
aS'-fdata-sections'
p11
aS'-g'
p12
aS'-Os'
p13
aS'-w'
p14
aS'-I/usr/share/arduino/hardware/arduino/variants/standard'
p15
aS'-I/usr/share/arduino/libraries/Wire'
p16
aS'-I/usr/share/arduino/libraries/Wire/utility'
p17
aS'-I/usr/share/arduino/hardware/arduino/cores/arduino'
p18
atp19
Rp20
tp21
a(S'version.txt'
p22
S'/usr/share/arduino/lib/version.txt'
p23
tp24
a(S'used_libs'
p25
(lp26
S'/usr/share/arduino/libraries/Wire'
p27
aS'/usr/share/arduino/hardware/arduino/cores/arduino'
p28
atp29
a(S'cc'
p30
S'/usr/bin/avr-gcc'
p31
tp32
a(S'make'
p33
S'/usr/bin/make'
p34
tp35
a(S'build_dir'
p36
S'.build/uno'
p37
tp38
a(S'arduino_core_dir'
p39
g28
tp40
a(S'boards.txt'
p41
(lp42
S'/usr/share/arduino/hardware/arduino/boards.txt'
p43
atp44
a(S'cxxflags'
p45
g2
(g3
g4
(lp46
S'-fno-exceptions'
p47
atp48
Rp49
tp50
a(S'arduino_variants_dir'
p51
S'/usr/share/arduino/hardware/arduino/variants'
p52
tp53
a(S'deps'
p54
g2
(g3
g4
(lp55
S'.build/uno/src/dependencies.d'
p56
aS'.build/uno/arduino/dependencies.d'
p57
aS'.build/uno/Wire/dependencies.d'
p58
atp59
Rp60
tp61
a(S'ar'
p62
S'/usr/bin/avr-ar'
p63
tp64
a(S'names'
p65
(dp66
S'cpp'
p67
S'%s.cpp'
p68
sS'obj'
p69
S'%s.o'
p70
sg54
S'%s.d'
p71
sS'lib'
p72
S'lib%s.a'
p73
stp74
a(S'cflags'
p75
g2
(g3
g4
(lp76
tp77
Rp78
tp79
a(S'ldflags'
p80
g2
(g3
g4
(lp81
g6
aS'-Wl,-Os'
p82
aS'-Wl,--gc-sections'
p83
atp84
Rp85
tp86
a(S'arduino_libraries_dir'
p87
S'/usr/share/arduino/libraries'
p88
tp89
a(S'arduino_lib_version'
p90
g2
(cino.environment
Version
p91
c__builtin__
tuple
p92
(I1
I0
I1
tp93
tp94
Rp95
tp96
a(S'objcopy'
p97
S'/usr/bin/avr-objcopy'
p98
tp99
a(S'board_models'
p100
cino.environment
BoardModels
p101
((lp102
(lp103
S'uno'
p104
a(dp105
S'build'
p106
(dp107
S'core'
p108
S'arduino'
p109
sS'mcu'
p110
S'atmega328p'
p111
sS'f_cpu'
p112
S'16000000L'
p113
sS'variant'
p114
S'standard'
p115
ssS'bootloader'
p116
(dp117
S'extended_fuses'
p118
S'0x05'
p119
sS'high_fuses'
p120
S'0xde'
p121
sS'low_fuses'
p122
S'0xff'
p123
sS'lock_bits'
p124
S'0x0F'
p125
sS'file'
p126
S'optiboot_atmega328.hex'
p127
sS'path'
p128
S'optiboot'
p129
sS'unlock_bits'
p130
S'0x3F'
p131
ssS'upload'
p132
(dp133
S'speed'
p134
S'115200'
p135
sS'maximum_size'
p136
S'32256'
p137
sS'protocol'
p138
S'arduino'
p139
ssS'name'
p140
S'Arduino Uno'
p141
sS'_coredir'
p142
S'/usr/share/arduino/hardware/arduino'
p143
saa(lp144
S'atmega328'
p145
a(dp146
S'build'
p147
(dp148
S'core'
p149
S'arduino'
p150
sS'mcu'
p151
S'atmega328p'
p152
sS'f_cpu'
p153
S'16000000L'
p154
sS'variant'
p155
S'standard'
p156
ssS'bootloader'
p157
(dp158
S'extended_fuses'
p159
S'0x05'
p160
sS'high_fuses'
p161
S'0xDA'
p162
sS'low_fuses'
p163
S'0xFF'
p164
sS'lock_bits'
p165
S'0x0F'
p166
sS'file'
p167
S'ATmegaBOOT_168_atmega328.hex'
p168
sS'path'
p169
S'atmega'
p170
sS'unlock_bits'
p171
S'0x3F'
p172
ssS'upload'
p173
(dp174
S'speed'
p175
S'57600'
p176
sS'maximum_size'
p177
S'30720'
p178
sS'protocol'
p179
S'arduino'
p180
ssS'name'
p181
S'Arduino Duemilanove w/ ATmega328'
p182
sg142
S'/usr/share/arduino/hardware/arduino'
p183
saa(lp184
S'diecimila'
p185
a(dp186
S'build'
p187
(dp188
S'core'
p189
S'arduino'
p190
sS'mcu'
p191
S'atmega168'
p192
sS'f_cpu'
p193
S'16000000L'
p194
sS'variant'
p195
S'standard'
p196
ssS'bootloader'
p197
(dp198
S'extended_fuses'
p199
S'0x00'
p200
sS'high_fuses'
p201
S'0xdd'
p202
sS'low_fuses'
p203
S'0xff'
p204
sS'lock_bits'
p205
S'0x0F'
p206
sS'file'
p207
S'ATmegaBOOT_168_diecimila.hex'
p208
sS'path'
p209
S'atmega'
p210
sS'unlock_bits'
p211
S'0x3F'
p212
ssS'upload'
p213
(dp214
S'speed'
p215
S'19200'
p216
sS'maximum_size'
p217
S'14336'
p218
sS'protocol'
p219
S'arduino'
p220
ssS'name'
p221
S'Arduino Diecimila or Duemilanove w/ ATmega168'
p222
sg142
S'/usr/share/arduino/hardware/arduino'
p223
saa(lp224
S'nano328'
p225
a(dp226
S'build'
p227
(dp228
S'core'
p229
S'arduino'
p230
sS'mcu'
p231
S'atmega328p'
p232
sS'f_cpu'
p233
S'16000000L'
p234
sS'variant'
p235
S'eightanaloginputs'
p236
ssS'bootloader'
p237
(dp238
S'extended_fuses'
p239
S'0x05'
p240
sS'high_fuses'
p241
S'0xDA'
p242
sS'low_fuses'
p243
S'0xFF'
p244
sS'lock_bits'
p245
S'0x0F'
p246
sS'file'
p247
S'ATmegaBOOT_168_atmega328.hex'
p248
sS'path'
p249
S'atmega'
p250
sS'unlock_bits'
p251
S'0x3F'
p252
ssS'upload'
p253
(dp254
S'speed'
p255
S'57600'
p256
sS'maximum_size'
p257
S'30720'
p258
sS'protocol'
p259
S'arduino'
p260
ssS'name'
p261
S'Arduino Nano w/ ATmega328'
p262
sg142
S'/usr/share/arduino/hardware/arduino'
p263
saa(lp264
S'nano'
p265
a(dp266
S'build'
p267
(dp268
S'core'
p269
S'arduino'
p270
sS'mcu'
p271
S'atmega168'
p272
sS'f_cpu'
p273
S'16000000L'
p274
sS'variant'
p275
S'eightanaloginputs'
p276
ssS'bootloader'
p277
(dp278
S'extended_fuses'
p279
S'0x00'
p280
sS'high_fuses'
p281
S'0xdd'
p282
sS'low_fuses'
p283
S'0xff'
p284
sS'lock_bits'
p285
S'0x0F'
p286
sS'file'
p287
S'ATmegaBOOT_168_diecimila.hex'
p288
sS'path'
p289
S'atmega'
p290
sS'unlock_bits'
p291
S'0x3F'
p292
ssS'upload'
p293
(dp294
S'speed'
p295
S'19200'
p296
sS'maximum_size'
p297
S'14336'
p298
sS'protocol'
p299
S'arduino'
p300
ssS'name'
p301
S'Arduino Nano w/ ATmega168'
p302
sg142
S'/usr/share/arduino/hardware/arduino'
p303
saa(lp304
S'mega2560'
p305
a(dp306
S'build'
p307
(dp308
S'core'
p309
S'arduino'
p310
sS'mcu'
p311
S'atmega2560'
p312
sS'f_cpu'
p313
S'16000000L'
p314
sS'variant'
p315
S'mega'
p316
ssS'bootloader'
p317
(dp318
S'extended_fuses'
p319
S'0xFD'
p320
sS'high_fuses'
p321
S'0xD8'
p322
sS'low_fuses'
p323
S'0xFF'
p324
sS'lock_bits'
p325
S'0x0F'
p326
sS'file'
p327
S'stk500boot_v2_mega2560.hex'
p328
sS'path'
p329
S'stk500v2'
p330
sS'unlock_bits'
p331
S'0x3F'
p332
ssS'upload'
p333
(dp334
S'speed'
p335
S'115200'
p336
sS'maximum_size'
p337
S'258048'
p338
sS'protocol'
p339
S'stk500v2'
p340
ssS'name'
p341
S'Arduino Mega 2560 or Mega ADK'
p342
sg142
S'/usr/share/arduino/hardware/arduino'
p343
saa(lp344
S'mega'
p345
a(dp346
S'build'
p347
(dp348
S'core'
p349
S'arduino'
p350
sS'mcu'
p351
S'atmega1280'
p352
sS'f_cpu'
p353
S'16000000L'
p354
sS'variant'
p355
S'mega'
p356
ssS'bootloader'
p357
(dp358
S'extended_fuses'
p359
S'0xF5'
p360
sS'high_fuses'
p361
S'0xDA'
p362
sS'low_fuses'
p363
S'0xFF'
p364
sS'lock_bits'
p365
S'0x0F'
p366
sS'file'
p367
S'ATmegaBOOT_168_atmega1280.hex'
p368
sS'path'
p369
S'atmega'
p370
sS'unlock_bits'
p371
S'0x3F'
p372
ssS'upload'
p373
(dp374
S'speed'
p375
S'57600'
p376
sS'maximum_size'
p377
S'126976'
p378
sS'protocol'
p379
S'arduino'
p380
ssS'name'
p381
S'Arduino Mega (ATmega1280)'
p382
sg142
S'/usr/share/arduino/hardware/arduino'
p383
saa(lp384
S'leonardo'
p385
a(dp386
S'build'
p387
(dp388
S'core'
p389
S'arduino'
p390
sS'f_cpu'
p391
S'16000000L'
p392
sS'vid'
p393
S'0x2341'
p394
sS'pid'
p395
S'0x8036'
p396
sS'variant'
p397
S'leonardo'
p398
sS'mcu'
p399
S'atmega32u4'
p400
ssS'bootloader'
p401
(dp402
S'extended_fuses'
p403
S'0xcb'
p404
sS'high_fuses'
p405
S'0xd8'
p406
sS'low_fuses'
p407
S'0xff'
p408
sS'lock_bits'
p409
S'0x2F'
p410
sS'file'
p411
S'Caterina-Leonardo.hex'
p412
sS'path'
p413
S'caterina'
p414
sS'unlock_bits'
p415
S'0x3F'
p416
ssS'upload'
p417
(dp418
S'speed'
p419
S'57600'
p420
sS'maximum_size'
p421
S'28672'
p422
sS'protocol'
p423
S'avr109'
p424
sS'disable_flushing'
p425
S'true'
p426
ssS'name'
p427
S'Arduino Leonardo'
p428
sg142
S'/usr/share/arduino/hardware/arduino'
p429
saa(lp430
S'mini328'
p431
a(dp432
S'build'
p433
(dp434
S'core'
p435
S'arduino'
p436
sS'mcu'
p437
S'atmega328p'
p438
sS'f_cpu'
p439
S'16000000L'
p440
sS'variant'
p441
S'eightanaloginputs'
p442
ssS'bootloader'
p443
(dp444
S'extended_fuses'
p445
S'0x05'
p446
sS'high_fuses'
p447
S'0xd8'
p448
sS'low_fuses'
p449
S'0xff'
p450
sS'lock_bits'
p451
S'0x0F'
p452
sS'file'
p453
S'optiboot_atmega328-Mini.hex'
p454
sS'path'
p455
S'optiboot'
p456
sS'unlock_bits'
p457
S'0x3F'
p458
ssS'upload'
p459
(dp460
S'speed'
p461
S'115200'
p462
sS'maximum_size'
p463
S'28672'
p464
sS'protocol'
p465
S'arduino'
p466
ssS'name'
p467
S'Arduino Mini w/ ATmega328'
p468
sg142
S'/usr/share/arduino/hardware/arduino'
p469
saa(lp470
S'mini'
p471
a(dp472
S'build'
p473
(dp474
S'core'
p475
S'arduino'
p476
sS'mcu'
p477
S'atmega168'
p478
sS'f_cpu'
p479
S'16000000L'
p480
sS'variant'
p481
S'eightanaloginputs'
p482
ssS'bootloader'
p483
(dp484
S'extended_fuses'
p485
S'0x00'
p486
sS'high_fuses'
p487
S'0xdd'
p488
sS'low_fuses'
p489
S'0xff'
p490
sS'lock_bits'
p491
S'0x0F'
p492
sS'file'
p493
S'ATmegaBOOT_168_ng.hex'
p494
sS'path'
p495
S'atmega'
p496
sS'unlock_bits'
p497
S'0x3F'
p498
ssS'upload'
p499
(dp500
S'speed'
p501
S'19200'
p502
sS'maximum_size'
p503
S'14336'
p504
sS'protocol'
p505
S'arduino'
p506
ssS'name'
p507
S'Arduino Mini w/ ATmega168'
p508
sg142
S'/usr/share/arduino/hardware/arduino'
p509
saa(lp510
S'ethernet'
p511
a(dp512
S'build'
p513
(dp514
S'f_cpu'
p515
S'16000000L'
p516
sS'mcu'
p517
S'atmega328p'
p518
sS'variant'
p519
S'standard'
p520
sS'core'
p521
S'arduino'
p522
ssS'bootloader'
p523
(dp524
S'extended_fuses'
p525
S'0x05'
p526
sS'high_fuses'
p527
S'0xde'
p528
sS'low_fuses'
p529
S'0xff'
p530
sS'lock_bits'
p531
S'0x0F'
p532
sS'file'
p533
S'optiboot_atmega328.hex'
p534
sS'path'
p535
S'optiboot'
p536
sS'unlock_bits'
p537
S'0x3F'
p538
ssS'upload'
p539
(dp540
S'speed'
p541
S'115200'
p542
sS'maximum_size'
p543
S'32256'
p544
sS'protocol'
p545
S'arduino'
p546
ssS'name'
p547
S'Arduino Ethernet'
p548
sg142
S'/usr/share/arduino/hardware/arduino'
p549
saa(lp550
S'fio'
p551
a(dp552
S'build'
p553
(dp554
S'core'
p555
S'arduino'
p556
sS'mcu'
p557
S'atmega328p'
p558
sS'f_cpu'
p559
S'8000000L'
p560
sS'variant'
p561
S'eightanaloginputs'
p562
ssS'bootloader'
p563
(dp564
S'extended_fuses'
p565
S'0x05'
p566
sS'high_fuses'
p567
S'0xDA'
p568
sS'low_fuses'
p569
S'0xFF'
p570
sS'lock_bits'
p571
S'0x0F'
p572
sS'file'
p573
S'ATmegaBOOT_168_atmega328_pro_8MHz.hex'
p574
sS'path'
p575
S'arduino:atmega'
p576
sS'unlock_bits'
p577
S'0x3F'
p578
ssS'upload'
p579
(dp580
S'speed'
p581
S'57600'
p582
sS'maximum_size'
p583
S'30720'
p584
sS'protocol'
p585
S'arduino'
p586
ssS'name'
p587
S'Arduino Fio'
p588
sg142
S'/usr/share/arduino/hardware/arduino'
p589
saa(lp590
S'bt328'
p591
a(dp592
S'build'
p593
(dp594
S'core'
p595
S'arduino'
p596
sS'mcu'
p597
S'atmega328p'
p598
sS'f_cpu'
p599
S'16000000L'
p600
sS'variant'
p601
S'eightanaloginputs'
p602
ssS'bootloader'
p603
(dp604
S'extended_fuses'
p605
S'0x05'
p606
sS'high_fuses'
p607
S'0xd8'
p608
sS'low_fuses'
p609
S'0xff'
p610
sS'lock_bits'
p611
S'0x0F'
p612
sS'file'
p613
S'ATmegaBOOT_168_atmega328_bt.hex'
p614
sS'path'
p615
S'bt'
p616
sS'unlock_bits'
p617
S'0x3F'
p618
ssS'upload'
p619
(dp620
S'speed'
p621
S'19200'
p622
sS'maximum_size'
p623
S'28672'
p624
sS'protocol'
p625
S'arduino'
p626
sS'disable_flushing'
p627
S'true'
p628
ssS'name'
p629
S'Arduino BT w/ ATmega328'
p630
sg142
S'/usr/share/arduino/hardware/arduino'
p631
saa(lp632
S'bt'
p633
a(dp634
S'build'
p635
(dp636
S'core'
p637
S'arduino'
p638
sS'mcu'
p639
S'atmega168'
p640
sS'f_cpu'
p641
S'16000000L'
p642
sS'variant'
p643
S'eightanaloginputs'
p644
ssS'bootloader'
p645
(dp646
S'extended_fuses'
p647
S'0x00'
p648
sS'high_fuses'
p649
S'0xdd'
p650
sS'low_fuses'
p651
S'0xff'
p652
sS'lock_bits'
p653
S'0x0F'
p654
sS'file'
p655
S'ATmegaBOOT_168.hex'
p656
sS'path'
p657
S'bt'
p658
sS'unlock_bits'
p659
S'0x3F'
p660
ssS'upload'
p661
(dp662
S'speed'
p663
S'19200'
p664
sS'maximum_size'
p665
S'14336'
p666
sS'protocol'
p667
S'arduino'
p668
sS'disable_flushing'
p669
S'true'
p670
ssS'name'
p671
S'Arduino BT w/ ATmega168'
p672
sg142
S'/usr/share/arduino/hardware/arduino'
p673
saa(lp674
S'lilypad328'
p675
a(dp676
S'build'
p677
(dp678
S'core'
p679
S'arduino'
p680
sS'mcu'
p681
S'atmega328p'
p682
sS'f_cpu'
p683
S'8000000L'
p684
sS'variant'
p685
S'standard'
p686
ssS'bootloader'
p687
(dp688
S'extended_fuses'
p689
S'0x05'
p690
sS'high_fuses'
p691
S'0xDA'
p692
sS'low_fuses'
p693
S'0xFF'
p694
sS'lock_bits'
p695
S'0x0F'
p696
sS'file'
p697
S'ATmegaBOOT_168_atmega328_pro_8MHz.hex'
p698
sS'path'
p699
S'atmega'
p700
sS'unlock_bits'
p701
S'0x3F'
p702
ssS'upload'
p703
(dp704
S'speed'
p705
S'57600'
p706
sS'maximum_size'
p707
S'30720'
p708
sS'protocol'
p709
S'arduino'
p710
ssS'name'
p711
S'LilyPad Arduino w/ ATmega328'
p712
sg142
S'/usr/share/arduino/hardware/arduino'
p713
saa(lp714
S'lilypad'
p715
a(dp716
S'build'
p717
(dp718
S'core'
p719
S'arduino'
p720
sS'mcu'
p721
S'atmega168'
p722
sS'f_cpu'
p723
S'8000000L'
p724
sS'variant'
p725
S'standard'
p726
ssS'bootloader'
p727
(dp728
S'extended_fuses'
p729
S'0x00'
p730
sS'high_fuses'
p731
S'0xdd'
p732
sS'low_fuses'
p733
S'0xe2'
p734
sS'lock_bits'
p735
S'0x0F'
p736
sS'file'
p737
S'LilyPadBOOT_168.hex'
p738
sS'path'
p739
S'lilypad'
p740
sS'unlock_bits'
p741
S'0x3F'
p742
ssS'upload'
p743
(dp744
S'speed'
p745
S'19200'
p746
sS'maximum_size'
p747
S'14336'
p748
sS'protocol'
p749
S'arduino'
p750
ssS'name'
p751
S'LilyPad Arduino w/ ATmega168'
p752
sg142
S'/usr/share/arduino/hardware/arduino'
p753
saa(lp754
S'pro5v328'
p755
a(dp756
S'build'
p757
(dp758
S'core'
p759
S'arduino'
p760
sS'mcu'
p761
S'atmega328p'
p762
sS'f_cpu'
p763
S'16000000L'
p764
sS'variant'
p765
S'standard'
p766
ssS'bootloader'
p767
(dp768
S'extended_fuses'
p769
S'0x05'
p770
sS'high_fuses'
p771
S'0xDA'
p772
sS'low_fuses'
p773
S'0xFF'
p774
sS'lock_bits'
p775
S'0x0F'
p776
sS'file'
p777
S'ATmegaBOOT_168_atmega328.hex'
p778
sS'path'
p779
S'atmega'
p780
sS'unlock_bits'
p781
S'0x3F'
p782
ssS'upload'
p783
(dp784
S'speed'
p785
S'57600'
p786
sS'maximum_size'
p787
S'30720'
p788
sS'protocol'
p789
S'arduino'
p790
ssS'name'
p791
S'Arduino Pro or Pro Mini (5V, 16 MHz) w/ ATmega328'
p792
sg142
S'/usr/share/arduino/hardware/arduino'
p793
saa(lp794
S'pro5v'
p795
a(dp796
S'build'
p797
(dp798
S'core'
p799
S'arduino'
p800
sS'mcu'
p801
S'atmega168'
p802
sS'f_cpu'
p803
S'16000000L'
p804
sS'variant'
p805
S'standard'
p806
ssS'bootloader'
p807
(dp808
S'extended_fuses'
p809
S'0x00'
p810
sS'high_fuses'
p811
S'0xdd'
p812
sS'low_fuses'
p813
S'0xff'
p814
sS'lock_bits'
p815
S'0x0F'
p816
sS'file'
p817
S'ATmegaBOOT_168_diecimila.hex'
p818
sS'path'
p819
S'atmega'
p820
sS'unlock_bits'
p821
S'0x3F'
p822
ssS'upload'
p823
(dp824
S'speed'
p825
S'19200'
p826
sS'maximum_size'
p827
S'14336'
p828
sS'protocol'
p829
S'arduino'
p830
ssS'name'
p831
S'Arduino Pro or Pro Mini (5V, 16 MHz) w/ ATmega168'
p832
sg142
S'/usr/share/arduino/hardware/arduino'
p833
saa(lp834
S'pro328'
p835
a(dp836
S'build'
p837
(dp838
S'core'
p839
S'arduino'
p840
sS'mcu'
p841
S'atmega328p'
p842
sS'f_cpu'
p843
S'8000000L'
p844
sS'variant'
p845
S'standard'
p846
ssS'bootloader'
p847
(dp848
S'extended_fuses'
p849
S'0x05'
p850
sS'high_fuses'
p851
S'0xDA'
p852
sS'low_fuses'
p853
S'0xFF'
p854
sS'lock_bits'
p855
S'0x0F'
p856
sS'file'
p857
S'ATmegaBOOT_168_atmega328_pro_8MHz.hex'
p858
sS'path'
p859
S'atmega'
p860
sS'unlock_bits'
p861
S'0x3F'
p862
ssS'upload'
p863
(dp864
S'speed'
p865
S'57600'
p866
sS'maximum_size'
p867
S'30720'
p868
sS'protocol'
p869
S'arduino'
p870
ssS'name'
p871
S'Arduino Pro or Pro Mini (3.3V, 8 MHz) w/ ATmega328'
p872
sg142
S'/usr/share/arduino/hardware/arduino'
p873
saa(lp874
S'pro'
p875
a(dp876
S'build'
p877
(dp878
S'core'
p879
S'arduino'
p880
sS'mcu'
p881
S'atmega168'
p882
sS'f_cpu'
p883
S'8000000L'
p884
sS'variant'
p885
S'standard'
p886
ssS'bootloader'
p887
(dp888
S'extended_fuses'
p889
S'0x00'
p890
sS'high_fuses'
p891
S'0xdd'
p892
sS'low_fuses'
p893
S'0xc6'
p894
sS'lock_bits'
p895
S'0x0F'
p896
sS'file'
p897
S'ATmegaBOOT_168_pro_8MHz.hex'
p898
sS'path'
p899
S'atmega'
p900
sS'unlock_bits'
p901
S'0x3F'
p902
ssS'upload'
p903
(dp904
S'speed'
p905
S'19200'
p906
sS'maximum_size'
p907
S'14336'
p908
sS'protocol'
p909
S'arduino'
p910
ssS'name'
p911
S'Arduino Pro or Pro Mini (3.3V, 8 MHz) w/ ATmega168'
p912
sg142
S'/usr/share/arduino/hardware/arduino'
p913
saa(lp914
S'atmega168'
p915
a(dp916
S'build'
p917
(dp918
S'core'
p919
S'arduino'
p920
sS'mcu'
p921
S'atmega168'
p922
sS'f_cpu'
p923
S'16000000L'
p924
sS'variant'
p925
S'standard'
p926
ssS'bootloader'
p927
(dp928
S'extended_fuses'
p929
S'0x00'
p930
sS'high_fuses'
p931
S'0xdd'
p932
sS'low_fuses'
p933
S'0xff'
p934
sS'lock_bits'
p935
S'0x0F'
p936
sS'file'
p937
S'ATmegaBOOT_168_ng.hex'
p938
sS'path'
p939
S'atmega'
p940
sS'unlock_bits'
p941
S'0x3F'
p942
ssS'upload'
p943
(dp944
S'speed'
p945
S'19200'
p946
sS'maximum_size'
p947
S'14336'
p948
sS'protocol'
p949
S'arduino'
p950
ssS'name'
p951
S'Arduino NG or older w/ ATmega168'
p952
sg142
S'/usr/share/arduino/hardware/arduino'
p953
saa(lp954
S'atmega8'
p955
a(dp956
S'build'
p957
(dp958
S'core'
p959
S'arduino'
p960
sS'mcu'
p961
S'atmega8'
p962
sS'f_cpu'
p963
S'16000000L'
p964
sS'variant'
p965
S'standard'
p966
ssS'bootloader'
p967
(dp968
S'high_fuses'
p969
S'0xca'
p970
sS'low_fuses'
p971
S'0xdf'
p972
sS'lock_bits'
p973
S'0x0F'
p974
sS'file'
p975
S'ATmegaBOOT.hex'
p976
sS'path'
p977
S'atmega8'
p978
sS'unlock_bits'
p979
S'0x3F'
p980
ssS'upload'
p981
(dp982
S'speed'
p983
S'19200'
p984
sS'maximum_size'
p985
S'7168'
p986
sS'protocol'
p987
S'arduino'
p988
ssS'name'
p989
S'Arduino NG or older w/ ATmega8'
p990
sg142
S'/usr/share/arduino/hardware/arduino'
p991
saatp992
Rp993
(dp994
S'default'
p995
S'uno'
p996
sbtp997
a(S'cxx'
p998
S'/usr/bin/avr-g++'
p999
tp1000
a.