(lp0
(S'cppflags'
p1
ccopy_reg
_reconstructor
p2
(cino.utils
SpaceList
p3
c__builtin__
list
p4
(lp5
S'-mmcu=atmega328p'
p6
aS'-DF_CPU=16000000L'
p7
aS'-DARDUINO=101'
p8
aS'-I/usr/share/arduino/hardware/arduino/cores/arduino'
p9
aS'-ffunction-sections'
p10
aS'-fdata-sections'
p11
aS'-g'
p12
aS'-Os'
p13
aS'-w'
p14
aS'-I/usr/share/arduino/hardware/arduino/variants/standard'
p15
aS'-I/usr/share/arduino/libraries/EEPROM'
p16
aS'-I/usr/share/arduino/libraries/Wire'
p17
aS'-I/usr/share/arduino/libraries/Wire/utility'
p18
aS'-I/usr/share/arduino/libraries/Keypad'
p19
aS'-I/usr/share/arduino/libraries/Keypad/utility'
p20
aS'-Ilib/Keypad'
p21
aS'-I/usr/share/arduino/hardware/arduino/cores/arduino'
p22
atp23
Rp24
tp25
a(S'cxx'
p26
S'/usr/bin/avr-g++'
p27
tp28
a(S'arduino_libraries_dir'
p29
S'/usr/share/arduino/libraries'
p30
tp31
a(S'avrdude'
p32
S'/usr/share/arduino/hardware/tools/avrdude'
p33
tp34
a(S'ar'
p35
S'/usr/bin/avr-ar'
p36
tp37
a(S'names'
p38
(dp39
S'cpp'
p40
S'%s.cpp'
p41
sS'obj'
p42
S'%s.o'
p43
sS'lib'
p44
S'lib%s.a'
p45
sS'deps'
p46
S'%s.d'
p47
stp48
a(S'ldflags'
p49
g2
(g3
g4
(lp50
g6
aS'-Wl,-Os'
p51
aS'-Wl,--gc-sections'
p52
atp53
Rp54
tp55
a(S'arduino_lib_version'
p56
g2
(cino.environment
Version
p57
c__builtin__
tuple
p58
(I1
I0
I1
tp59
tp60
Rp61
tp62
a(S'objcopy'
p63
S'/usr/bin/avr-objcopy'
p64
tp65
a(S'board_models'
p66
cino.environment
BoardModels
p67
((lp68
(lp69
S'uno'
p70
a(dp71
S'_coredir'
p72
S'/usr/share/arduino/hardware/arduino'
p73
sS'bootloader'
p74
(dp75
S'extended_fuses'
p76
S'0x05'
p77
sS'high_fuses'
p78
S'0xde'
p79
sS'low_fuses'
p80
S'0xff'
p81
sS'lock_bits'
p82
S'0x0F'
p83
sS'file'
p84
S'optiboot_atmega328.hex'
p85
sS'path'
p86
S'optiboot'
p87
sS'unlock_bits'
p88
S'0x3F'
p89
ssS'upload'
p90
(dp91
S'protocol'
p92
S'arduino'
p93
sS'maximum_size'
p94
S'32256'
p95
sS'speed'
p96
S'115200'
p97
ssS'name'
p98
S'Arduino Uno'
p99
sS'build'
p100
(dp101
S'core'
p102
S'arduino'
p103
sS'mcu'
p104
S'atmega328p'
p105
sS'f_cpu'
p106
S'16000000L'
p107
sS'variant'
p108
S'standard'
p109
ssaa(lp110
S'atmega328'
p111
a(dp112
g72
S'/usr/share/arduino/hardware/arduino'
p113
sS'bootloader'
p114
(dp115
S'extended_fuses'
p116
S'0x05'
p117
sS'high_fuses'
p118
S'0xDA'
p119
sS'low_fuses'
p120
S'0xFF'
p121
sS'lock_bits'
p122
S'0x0F'
p123
sS'file'
p124
S'ATmegaBOOT_168_atmega328.hex'
p125
sS'path'
p126
S'atmega'
p127
sS'unlock_bits'
p128
S'0x3F'
p129
ssS'upload'
p130
(dp131
S'protocol'
p132
S'arduino'
p133
sS'maximum_size'
p134
S'30720'
p135
sS'speed'
p136
S'57600'
p137
ssS'name'
p138
S'Arduino Duemilanove w/ ATmega328'
p139
sS'build'
p140
(dp141
S'core'
p142
S'arduino'
p143
sS'mcu'
p144
S'atmega328p'
p145
sS'f_cpu'
p146
S'16000000L'
p147
sS'variant'
p148
S'standard'
p149
ssaa(lp150
S'diecimila'
p151
a(dp152
g72
S'/usr/share/arduino/hardware/arduino'
p153
sS'bootloader'
p154
(dp155
S'extended_fuses'
p156
S'0x00'
p157
sS'high_fuses'
p158
S'0xdd'
p159
sS'low_fuses'
p160
S'0xff'
p161
sS'lock_bits'
p162
S'0x0F'
p163
sS'file'
p164
S'ATmegaBOOT_168_diecimila.hex'
p165
sS'path'
p166
S'atmega'
p167
sS'unlock_bits'
p168
S'0x3F'
p169
ssS'upload'
p170
(dp171
S'protocol'
p172
S'arduino'
p173
sS'maximum_size'
p174
S'14336'
p175
sS'speed'
p176
S'19200'
p177
ssS'name'
p178
S'Arduino Diecimila or Duemilanove w/ ATmega168'
p179
sS'build'
p180
(dp181
S'core'
p182
S'arduino'
p183
sS'mcu'
p184
S'atmega168'
p185
sS'f_cpu'
p186
S'16000000L'
p187
sS'variant'
p188
S'standard'
p189
ssaa(lp190
S'nano328'
p191
a(dp192
g72
S'/usr/share/arduino/hardware/arduino'
p193
sS'bootloader'
p194
(dp195
S'extended_fuses'
p196
S'0x05'
p197
sS'high_fuses'
p198
S'0xDA'
p199
sS'low_fuses'
p200
S'0xFF'
p201
sS'lock_bits'
p202
S'0x0F'
p203
sS'file'
p204
S'ATmegaBOOT_168_atmega328.hex'
p205
sS'path'
p206
S'atmega'
p207
sS'unlock_bits'
p208
S'0x3F'
p209
ssS'upload'
p210
(dp211
S'protocol'
p212
S'arduino'
p213
sS'maximum_size'
p214
S'30720'
p215
sS'speed'
p216
S'57600'
p217
ssS'name'
p218
S'Arduino Nano w/ ATmega328'
p219
sS'build'
p220
(dp221
S'core'
p222
S'arduino'
p223
sS'mcu'
p224
S'atmega328p'
p225
sS'f_cpu'
p226
S'16000000L'
p227
sS'variant'
p228
S'eightanaloginputs'
p229
ssaa(lp230
S'nano'
p231
a(dp232
g72
S'/usr/share/arduino/hardware/arduino'
p233
sS'bootloader'
p234
(dp235
S'extended_fuses'
p236
S'0x00'
p237
sS'high_fuses'
p238
S'0xdd'
p239
sS'low_fuses'
p240
S'0xff'
p241
sS'lock_bits'
p242
S'0x0F'
p243
sS'file'
p244
S'ATmegaBOOT_168_diecimila.hex'
p245
sS'path'
p246
S'atmega'
p247
sS'unlock_bits'
p248
S'0x3F'
p249
ssS'upload'
p250
(dp251
S'protocol'
p252
S'arduino'
p253
sS'maximum_size'
p254
S'14336'
p255
sS'speed'
p256
S'19200'
p257
ssS'name'
p258
S'Arduino Nano w/ ATmega168'
p259
sS'build'
p260
(dp261
S'core'
p262
S'arduino'
p263
sS'mcu'
p264
S'atmega168'
p265
sS'f_cpu'
p266
S'16000000L'
p267
sS'variant'
p268
S'eightanaloginputs'
p269
ssaa(lp270
S'mega2560'
p271
a(dp272
g72
S'/usr/share/arduino/hardware/arduino'
p273
sS'bootloader'
p274
(dp275
S'extended_fuses'
p276
S'0xFD'
p277
sS'high_fuses'
p278
S'0xD8'
p279
sS'low_fuses'
p280
S'0xFF'
p281
sS'lock_bits'
p282
S'0x0F'
p283
sS'file'
p284
S'stk500boot_v2_mega2560.hex'
p285
sS'path'
p286
S'stk500v2'
p287
sS'unlock_bits'
p288
S'0x3F'
p289
ssS'upload'
p290
(dp291
S'protocol'
p292
S'stk500v2'
p293
sS'maximum_size'
p294
S'258048'
p295
sS'speed'
p296
S'115200'
p297
ssS'name'
p298
S'Arduino Mega 2560 or Mega ADK'
p299
sS'build'
p300
(dp301
S'core'
p302
S'arduino'
p303
sS'mcu'
p304
S'atmega2560'
p305
sS'f_cpu'
p306
S'16000000L'
p307
sS'variant'
p308
S'mega'
p309
ssaa(lp310
S'mega'
p311
a(dp312
g72
S'/usr/share/arduino/hardware/arduino'
p313
sS'bootloader'
p314
(dp315
S'extended_fuses'
p316
S'0xF5'
p317
sS'high_fuses'
p318
S'0xDA'
p319
sS'low_fuses'
p320
S'0xFF'
p321
sS'lock_bits'
p322
S'0x0F'
p323
sS'file'
p324
S'ATmegaBOOT_168_atmega1280.hex'
p325
sS'path'
p326
S'atmega'
p327
sS'unlock_bits'
p328
S'0x3F'
p329
ssS'upload'
p330
(dp331
S'protocol'
p332
S'arduino'
p333
sS'maximum_size'
p334
S'126976'
p335
sS'speed'
p336
S'57600'
p337
ssS'name'
p338
S'Arduino Mega (ATmega1280)'
p339
sS'build'
p340
(dp341
S'core'
p342
S'arduino'
p343
sS'mcu'
p344
S'atmega1280'
p345
sS'f_cpu'
p346
S'16000000L'
p347
sS'variant'
p348
S'mega'
p349
ssaa(lp350
S'leonardo'
p351
a(dp352
g72
S'/usr/share/arduino/hardware/arduino'
p353
sS'bootloader'
p354
(dp355
S'extended_fuses'
p356
S'0xcb'
p357
sS'high_fuses'
p358
S'0xd8'
p359
sS'low_fuses'
p360
S'0xff'
p361
sS'lock_bits'
p362
S'0x2F'
p363
sS'file'
p364
S'Caterina-Leonardo.hex'
p365
sS'path'
p366
S'caterina'
p367
sS'unlock_bits'
p368
S'0x3F'
p369
ssS'upload'
p370
(dp371
S'protocol'
p372
S'avr109'
p373
sS'maximum_size'
p374
S'28672'
p375
sS'speed'
p376
S'57600'
p377
sS'disable_flushing'
p378
S'true'
p379
ssS'name'
p380
S'Arduino Leonardo'
p381
sS'build'
p382
(dp383
S'core'
p384
S'arduino'
p385
sS'f_cpu'
p386
S'16000000L'
p387
sS'vid'
p388
S'0x2341'
p389
sS'pid'
p390
S'0x8036'
p391
sS'variant'
p392
S'leonardo'
p393
sS'mcu'
p394
S'atmega32u4'
p395
ssaa(lp396
S'mini328'
p397
a(dp398
g72
S'/usr/share/arduino/hardware/arduino'
p399
sS'bootloader'
p400
(dp401
S'extended_fuses'
p402
S'0x05'
p403
sS'high_fuses'
p404
S'0xd8'
p405
sS'low_fuses'
p406
S'0xff'
p407
sS'lock_bits'
p408
S'0x0F'
p409
sS'file'
p410
S'optiboot_atmega328-Mini.hex'
p411
sS'path'
p412
S'optiboot'
p413
sS'unlock_bits'
p414
S'0x3F'
p415
ssS'upload'
p416
(dp417
S'protocol'
p418
S'arduino'
p419
sS'maximum_size'
p420
S'28672'
p421
sS'speed'
p422
S'115200'
p423
ssS'name'
p424
S'Arduino Mini w/ ATmega328'
p425
sS'build'
p426
(dp427
S'core'
p428
S'arduino'
p429
sS'mcu'
p430
S'atmega328p'
p431
sS'f_cpu'
p432
S'16000000L'
p433
sS'variant'
p434
S'eightanaloginputs'
p435
ssaa(lp436
S'mini'
p437
a(dp438
g72
S'/usr/share/arduino/hardware/arduino'
p439
sS'bootloader'
p440
(dp441
S'extended_fuses'
p442
S'0x00'
p443
sS'high_fuses'
p444
S'0xdd'
p445
sS'low_fuses'
p446
S'0xff'
p447
sS'lock_bits'
p448
S'0x0F'
p449
sS'file'
p450
S'ATmegaBOOT_168_ng.hex'
p451
sS'path'
p452
S'atmega'
p453
sS'unlock_bits'
p454
S'0x3F'
p455
ssS'upload'
p456
(dp457
S'protocol'
p458
S'arduino'
p459
sS'maximum_size'
p460
S'14336'
p461
sS'speed'
p462
S'19200'
p463
ssS'name'
p464
S'Arduino Mini w/ ATmega168'
p465
sS'build'
p466
(dp467
S'core'
p468
S'arduino'
p469
sS'mcu'
p470
S'atmega168'
p471
sS'f_cpu'
p472
S'16000000L'
p473
sS'variant'
p474
S'eightanaloginputs'
p475
ssaa(lp476
S'ethernet'
p477
a(dp478
g72
S'/usr/share/arduino/hardware/arduino'
p479
sS'bootloader'
p480
(dp481
S'extended_fuses'
p482
S'0x05'
p483
sS'high_fuses'
p484
S'0xde'
p485
sS'low_fuses'
p486
S'0xff'
p487
sS'lock_bits'
p488
S'0x0F'
p489
sS'file'
p490
S'optiboot_atmega328.hex'
p491
sS'path'
p492
S'optiboot'
p493
sS'unlock_bits'
p494
S'0x3F'
p495
ssS'upload'
p496
(dp497
S'protocol'
p498
S'arduino'
p499
sS'maximum_size'
p500
S'32256'
p501
sS'speed'
p502
S'115200'
p503
ssS'name'
p504
S'Arduino Ethernet'
p505
sS'build'
p506
(dp507
S'variant'
p508
S'standard'
p509
sS'mcu'
p510
S'atmega328p'
p511
sS'f_cpu'
p512
S'16000000L'
p513
sS'core'
p514
S'arduino'
p515
ssaa(lp516
S'fio'
p517
a(dp518
g72
S'/usr/share/arduino/hardware/arduino'
p519
sS'bootloader'
p520
(dp521
S'extended_fuses'
p522
S'0x05'
p523
sS'high_fuses'
p524
S'0xDA'
p525
sS'low_fuses'
p526
S'0xFF'
p527
sS'lock_bits'
p528
S'0x0F'
p529
sS'file'
p530
S'ATmegaBOOT_168_atmega328_pro_8MHz.hex'
p531
sS'path'
p532
S'arduino:atmega'
p533
sS'unlock_bits'
p534
S'0x3F'
p535
ssS'upload'
p536
(dp537
S'protocol'
p538
S'arduino'
p539
sS'maximum_size'
p540
S'30720'
p541
sS'speed'
p542
S'57600'
p543
ssS'name'
p544
S'Arduino Fio'
p545
sS'build'
p546
(dp547
S'core'
p548
S'arduino'
p549
sS'mcu'
p550
S'atmega328p'
p551
sS'f_cpu'
p552
S'8000000L'
p553
sS'variant'
p554
S'eightanaloginputs'
p555
ssaa(lp556
S'bt328'
p557
a(dp558
g72
S'/usr/share/arduino/hardware/arduino'
p559
sS'bootloader'
p560
(dp561
S'extended_fuses'
p562
S'0x05'
p563
sS'high_fuses'
p564
S'0xd8'
p565
sS'low_fuses'
p566
S'0xff'
p567
sS'lock_bits'
p568
S'0x0F'
p569
sS'file'
p570
S'ATmegaBOOT_168_atmega328_bt.hex'
p571
sS'path'
p572
S'bt'
p573
sS'unlock_bits'
p574
S'0x3F'
p575
ssS'upload'
p576
(dp577
S'protocol'
p578
S'arduino'
p579
sS'maximum_size'
p580
S'28672'
p581
sS'speed'
p582
S'19200'
p583
sS'disable_flushing'
p584
S'true'
p585
ssS'name'
p586
S'Arduino BT w/ ATmega328'
p587
sS'build'
p588
(dp589
S'core'
p590
S'arduino'
p591
sS'mcu'
p592
S'atmega328p'
p593
sS'f_cpu'
p594
S'16000000L'
p595
sS'variant'
p596
S'eightanaloginputs'
p597
ssaa(lp598
S'bt'
p599
a(dp600
g72
S'/usr/share/arduino/hardware/arduino'
p601
sS'bootloader'
p602
(dp603
S'extended_fuses'
p604
S'0x00'
p605
sS'high_fuses'
p606
S'0xdd'
p607
sS'low_fuses'
p608
S'0xff'
p609
sS'lock_bits'
p610
S'0x0F'
p611
sS'file'
p612
S'ATmegaBOOT_168.hex'
p613
sS'path'
p614
S'bt'
p615
sS'unlock_bits'
p616
S'0x3F'
p617
ssS'upload'
p618
(dp619
S'protocol'
p620
S'arduino'
p621
sS'maximum_size'
p622
S'14336'
p623
sS'speed'
p624
S'19200'
p625
sS'disable_flushing'
p626
S'true'
p627
ssS'name'
p628
S'Arduino BT w/ ATmega168'
p629
sS'build'
p630
(dp631
S'core'
p632
S'arduino'
p633
sS'mcu'
p634
S'atmega168'
p635
sS'f_cpu'
p636
S'16000000L'
p637
sS'variant'
p638
S'eightanaloginputs'
p639
ssaa(lp640
S'lilypad328'
p641
a(dp642
g72
S'/usr/share/arduino/hardware/arduino'
p643
sS'bootloader'
p644
(dp645
S'extended_fuses'
p646
S'0x05'
p647
sS'high_fuses'
p648
S'0xDA'
p649
sS'low_fuses'
p650
S'0xFF'
p651
sS'lock_bits'
p652
S'0x0F'
p653
sS'file'
p654
S'ATmegaBOOT_168_atmega328_pro_8MHz.hex'
p655
sS'path'
p656
S'atmega'
p657
sS'unlock_bits'
p658
S'0x3F'
p659
ssS'upload'
p660
(dp661
S'protocol'
p662
S'arduino'
p663
sS'maximum_size'
p664
S'30720'
p665
sS'speed'
p666
S'57600'
p667
ssS'name'
p668
S'LilyPad Arduino w/ ATmega328'
p669
sS'build'
p670
(dp671
S'core'
p672
S'arduino'
p673
sS'mcu'
p674
S'atmega328p'
p675
sS'f_cpu'
p676
S'8000000L'
p677
sS'variant'
p678
S'standard'
p679
ssaa(lp680
S'lilypad'
p681
a(dp682
g72
S'/usr/share/arduino/hardware/arduino'
p683
sS'bootloader'
p684
(dp685
S'extended_fuses'
p686
S'0x00'
p687
sS'high_fuses'
p688
S'0xdd'
p689
sS'low_fuses'
p690
S'0xe2'
p691
sS'lock_bits'
p692
S'0x0F'
p693
sS'file'
p694
S'LilyPadBOOT_168.hex'
p695
sS'path'
p696
S'lilypad'
p697
sS'unlock_bits'
p698
S'0x3F'
p699
ssS'upload'
p700
(dp701
S'protocol'
p702
S'arduino'
p703
sS'maximum_size'
p704
S'14336'
p705
sS'speed'
p706
S'19200'
p707
ssS'name'
p708
S'LilyPad Arduino w/ ATmega168'
p709
sS'build'
p710
(dp711
S'core'
p712
S'arduino'
p713
sS'mcu'
p714
S'atmega168'
p715
sS'f_cpu'
p716
S'8000000L'
p717
sS'variant'
p718
S'standard'
p719
ssaa(lp720
S'pro5v328'
p721
a(dp722
g72
S'/usr/share/arduino/hardware/arduino'
p723
sS'bootloader'
p724
(dp725
S'extended_fuses'
p726
S'0x05'
p727
sS'high_fuses'
p728
S'0xDA'
p729
sS'low_fuses'
p730
S'0xFF'
p731
sS'lock_bits'
p732
S'0x0F'
p733
sS'file'
p734
S'ATmegaBOOT_168_atmega328.hex'
p735
sS'path'
p736
S'atmega'
p737
sS'unlock_bits'
p738
S'0x3F'
p739
ssS'upload'
p740
(dp741
S'protocol'
p742
S'arduino'
p743
sS'maximum_size'
p744
S'30720'
p745
sS'speed'
p746
S'57600'
p747
ssS'name'
p748
S'Arduino Pro or Pro Mini (5V, 16 MHz) w/ ATmega328'
p749
sS'build'
p750
(dp751
S'core'
p752
S'arduino'
p753
sS'mcu'
p754
S'atmega328p'
p755
sS'f_cpu'
p756
S'16000000L'
p757
sS'variant'
p758
S'standard'
p759
ssaa(lp760
S'pro5v'
p761
a(dp762
g72
S'/usr/share/arduino/hardware/arduino'
p763
sS'bootloader'
p764
(dp765
S'extended_fuses'
p766
S'0x00'
p767
sS'high_fuses'
p768
S'0xdd'
p769
sS'low_fuses'
p770
S'0xff'
p771
sS'lock_bits'
p772
S'0x0F'
p773
sS'file'
p774
S'ATmegaBOOT_168_diecimila.hex'
p775
sS'path'
p776
S'atmega'
p777
sS'unlock_bits'
p778
S'0x3F'
p779
ssS'upload'
p780
(dp781
S'protocol'
p782
S'arduino'
p783
sS'maximum_size'
p784
S'14336'
p785
sS'speed'
p786
S'19200'
p787
ssS'name'
p788
S'Arduino Pro or Pro Mini (5V, 16 MHz) w/ ATmega168'
p789
sS'build'
p790
(dp791
S'core'
p792
S'arduino'
p793
sS'mcu'
p794
S'atmega168'
p795
sS'f_cpu'
p796
S'16000000L'
p797
sS'variant'
p798
S'standard'
p799
ssaa(lp800
S'pro328'
p801
a(dp802
g72
S'/usr/share/arduino/hardware/arduino'
p803
sS'bootloader'
p804
(dp805
S'extended_fuses'
p806
S'0x05'
p807
sS'high_fuses'
p808
S'0xDA'
p809
sS'low_fuses'
p810
S'0xFF'
p811
sS'lock_bits'
p812
S'0x0F'
p813
sS'file'
p814
S'ATmegaBOOT_168_atmega328_pro_8MHz.hex'
p815
sS'path'
p816
S'atmega'
p817
sS'unlock_bits'
p818
S'0x3F'
p819
ssS'upload'
p820
(dp821
S'protocol'
p822
S'arduino'
p823
sS'maximum_size'
p824
S'30720'
p825
sS'speed'
p826
S'57600'
p827
ssS'name'
p828
S'Arduino Pro or Pro Mini (3.3V, 8 MHz) w/ ATmega328'
p829
sS'build'
p830
(dp831
S'core'
p832
S'arduino'
p833
sS'mcu'
p834
S'atmega328p'
p835
sS'f_cpu'
p836
S'8000000L'
p837
sS'variant'
p838
S'standard'
p839
ssaa(lp840
S'pro'
p841
a(dp842
g72
S'/usr/share/arduino/hardware/arduino'
p843
sS'bootloader'
p844
(dp845
S'extended_fuses'
p846
S'0x00'
p847
sS'high_fuses'
p848
S'0xdd'
p849
sS'low_fuses'
p850
S'0xc6'
p851
sS'lock_bits'
p852
S'0x0F'
p853
sS'file'
p854
S'ATmegaBOOT_168_pro_8MHz.hex'
p855
sS'path'
p856
S'atmega'
p857
sS'unlock_bits'
p858
S'0x3F'
p859
ssS'upload'
p860
(dp861
S'protocol'
p862
S'arduino'
p863
sS'maximum_size'
p864
S'14336'
p865
sS'speed'
p866
S'19200'
p867
ssS'name'
p868
S'Arduino Pro or Pro Mini (3.3V, 8 MHz) w/ ATmega168'
p869
sS'build'
p870
(dp871
S'core'
p872
S'arduino'
p873
sS'mcu'
p874
S'atmega168'
p875
sS'f_cpu'
p876
S'8000000L'
p877
sS'variant'
p878
S'standard'
p879
ssaa(lp880
S'atmega168'
p881
a(dp882
g72
S'/usr/share/arduino/hardware/arduino'
p883
sS'bootloader'
p884
(dp885
S'extended_fuses'
p886
S'0x00'
p887
sS'high_fuses'
p888
S'0xdd'
p889
sS'low_fuses'
p890
S'0xff'
p891
sS'lock_bits'
p892
S'0x0F'
p893
sS'file'
p894
S'ATmegaBOOT_168_ng.hex'
p895
sS'path'
p896
S'atmega'
p897
sS'unlock_bits'
p898
S'0x3F'
p899
ssS'upload'
p900
(dp901
S'protocol'
p902
S'arduino'
p903
sS'maximum_size'
p904
S'14336'
p905
sS'speed'
p906
S'19200'
p907
ssS'name'
p908
S'Arduino NG or older w/ ATmega168'
p909
sS'build'
p910
(dp911
S'core'
p912
S'arduino'
p913
sS'mcu'
p914
S'atmega168'
p915
sS'f_cpu'
p916
S'16000000L'
p917
sS'variant'
p918
S'standard'
p919
ssaa(lp920
S'atmega8'
p921
a(dp922
g72
S'/usr/share/arduino/hardware/arduino'
p923
sS'bootloader'
p924
(dp925
S'high_fuses'
p926
S'0xca'
p927
sS'low_fuses'
p928
S'0xdf'
p929
sS'lock_bits'
p930
S'0x0F'
p931
sS'file'
p932
S'ATmegaBOOT.hex'
p933
sS'path'
p934
S'atmega8'
p935
sS'unlock_bits'
p936
S'0x3F'
p937
ssS'upload'
p938
(dp939
S'protocol'
p940
S'arduino'
p941
sS'maximum_size'
p942
S'7168'
p943
sS'speed'
p944
S'19200'
p945
ssS'name'
p946
S'Arduino NG or older w/ ATmega8'
p947
sS'build'
p948
(dp949
S'core'
p950
S'arduino'
p951
sS'mcu'
p952
S'atmega8'
p953
sS'f_cpu'
p954
S'16000000L'
p955
sS'variant'
p956
S'standard'
p957
ssaatp958
Rp959
(dp960
S'default'
p961
S'uno'
p962
sbtp963
a(S'used_libs'
p964
(lp965
S'/usr/share/arduino/libraries/EEPROM'
p966
aS'/usr/share/arduino/libraries/Wire'
p967
aS'/usr/share/arduino/libraries/Keypad'
p968
aS'lib/Keypad'
p969
aS'/usr/share/arduino/hardware/arduino/cores/arduino'
p970
atp971
a(S'make'
p972
S'/usr/bin/make'
p973
tp974
a(S'build_dir'
p975
S'.build/uno'
p976
tp977
a(S'cc'
p978
S'/usr/bin/avr-gcc'
p979
tp980
a(S'cflags'
p981
g2
(g3
g4
(lp982
tp983
Rp984
tp985
a(S'cxxflags'
p986
g2
(g3
g4
(lp987
S'-fno-exceptions'
p988
atp989
Rp990
tp991
a(S'arduino_variants_dir'
p992
S'/usr/share/arduino/hardware/arduino/variants'
p993
tp994
a(S'serial'
p995
S'/usr/bin/picocom'
p996
tp997
a(S'stty'
p998
S'/bin/stty'
p999
tp1000
a(S'version.txt'
p1001
S'/usr/share/arduino/lib/version.txt'
p1002
tp1003
a(S'arduino_core_dir'
p1004
g970
tp1005
a(S'boards.txt'
p1006
(lp1007
S'/usr/share/arduino/hardware/arduino/boards.txt'
p1008
atp1009
a(S'avrdude.conf'
p1010
S'/usr/share/arduino/hardware/tools/avrdude.conf'
p1011
tp1012
a(g46
g2
(g3
g4
(lp1013
S'.build/uno/src/dependencies.d'
p1014
aS'.build/uno/arduino/dependencies.d'
p1015
aS'.build/uno/Keypad/dependencies.d'
p1016
aS'.build/uno/EEPROM/dependencies.d'
p1017
aS'.build/uno/Keypad/dependencies.d'
p1018
aS'.build/uno/Wire/dependencies.d'
p1019
atp1020
Rp1021
tp1022
a.