(lp0
(S'cppflags'
p1
ccopy_reg
_reconstructor
p2
(cino.utils
SpaceList
p3
c__builtin__
list
p4
(lp5
S'-mmcu=atmega328p'
p6
aS'-DF_CPU=16000000L'
p7
aS'-DARDUINO=101'
p8
aS'-I/usr/share/arduino/hardware/arduino/cores/arduino'
p9
aS'-ffunction-sections'
p10
aS'-fdata-sections'
p11
aS'-g'
p12
aS'-Os'
p13
aS'-w'
p14
aS'-I/usr/share/arduino/hardware/arduino/variants/standard'
p15
aS'-I/usr/share/arduino/libraries/EEPROM'
p16
aS'-I/usr/share/arduino/libraries/Wire'
p17
aS'-I/usr/share/arduino/libraries/Wire/utility'
p18
aS'-I/usr/share/arduino/libraries/Keypad'
p19
aS'-I/usr/share/arduino/libraries/Keypad/utility'
p20
aS'-Ilib/Keypad'
p21
aS'-I/usr/share/arduino/hardware/arduino/cores/arduino'
p22
atp23
Rp24
tp25
a(S'cxx'
p26
S'/usr/bin/avr-g++'
p27
tp28
a(S'build_dir'
p29
S'.build/uno'
p30
tp31
a(S'avrdude'
p32
S'/usr/share/arduino/hardware/tools/avrdude'
p33
tp34
a(S'ar'
p35
S'/usr/bin/avr-ar'
p36
tp37
a(S'names'
p38
(dp39
S'cpp'
p40
S'%s.cpp'
p41
sS'obj'
p42
S'%s.o'
p43
sS'lib'
p44
S'lib%s.a'
p45
sS'deps'
p46
S'%s.d'
p47
stp48
a(S'ldflags'
p49
g2
(g3
g4
(lp50
g6
aS'-Wl,-Os'
p51
aS'-Wl,--gc-sections'
p52
atp53
Rp54
tp55
a(S'arduino_lib_version'
p56
g2
(cino.environment
Version
p57
c__builtin__
tuple
p58
(I1
I0
I1
tp59
tp60
Rp61
tp62
a(S'objcopy'
p63
S'/usr/bin/avr-objcopy'
p64
tp65
a(S'board_models'
p66
cino.environment
BoardModels
p67
((lp68
(lp69
S'uno'
p70
a(dp71
S'build'
p72
(dp73
S'core'
p74
S'arduino'
p75
sS'mcu'
p76
S'atmega328p'
p77
sS'f_cpu'
p78
S'16000000L'
p79
sS'variant'
p80
S'standard'
p81
ssS'bootloader'
p82
(dp83
S'extended_fuses'
p84
S'0x05'
p85
sS'high_fuses'
p86
S'0xde'
p87
sS'low_fuses'
p88
S'0xff'
p89
sS'lock_bits'
p90
S'0x0F'
p91
sS'file'
p92
S'optiboot_atmega328.hex'
p93
sS'path'
p94
S'optiboot'
p95
sS'unlock_bits'
p96
S'0x3F'
p97
ssS'upload'
p98
(dp99
S'speed'
p100
S'115200'
p101
sS'maximum_size'
p102
S'32256'
p103
sS'protocol'
p104
S'arduino'
p105
ssS'name'
p106
S'Arduino Uno'
p107
sS'_coredir'
p108
S'/usr/share/arduino/hardware/arduino'
p109
saa(lp110
S'atmega328'
p111
a(dp112
S'build'
p113
(dp114
S'core'
p115
S'arduino'
p116
sS'mcu'
p117
S'atmega328p'
p118
sS'f_cpu'
p119
S'16000000L'
p120
sS'variant'
p121
S'standard'
p122
ssS'bootloader'
p123
(dp124
S'extended_fuses'
p125
S'0x05'
p126
sS'high_fuses'
p127
S'0xDA'
p128
sS'low_fuses'
p129
S'0xFF'
p130
sS'lock_bits'
p131
S'0x0F'
p132
sS'file'
p133
S'ATmegaBOOT_168_atmega328.hex'
p134
sS'path'
p135
S'atmega'
p136
sS'unlock_bits'
p137
S'0x3F'
p138
ssS'upload'
p139
(dp140
S'speed'
p141
S'57600'
p142
sS'maximum_size'
p143
S'30720'
p144
sS'protocol'
p145
S'arduino'
p146
ssS'name'
p147
S'Arduino Duemilanove w/ ATmega328'
p148
sg108
S'/usr/share/arduino/hardware/arduino'
p149
saa(lp150
S'diecimila'
p151
a(dp152
S'build'
p153
(dp154
S'core'
p155
S'arduino'
p156
sS'mcu'
p157
S'atmega168'
p158
sS'f_cpu'
p159
S'16000000L'
p160
sS'variant'
p161
S'standard'
p162
ssS'bootloader'
p163
(dp164
S'extended_fuses'
p165
S'0x00'
p166
sS'high_fuses'
p167
S'0xdd'
p168
sS'low_fuses'
p169
S'0xff'
p170
sS'lock_bits'
p171
S'0x0F'
p172
sS'file'
p173
S'ATmegaBOOT_168_diecimila.hex'
p174
sS'path'
p175
S'atmega'
p176
sS'unlock_bits'
p177
S'0x3F'
p178
ssS'upload'
p179
(dp180
S'speed'
p181
S'19200'
p182
sS'maximum_size'
p183
S'14336'
p184
sS'protocol'
p185
S'arduino'
p186
ssS'name'
p187
S'Arduino Diecimila or Duemilanove w/ ATmega168'
p188
sg108
S'/usr/share/arduino/hardware/arduino'
p189
saa(lp190
S'nano328'
p191
a(dp192
S'build'
p193
(dp194
S'core'
p195
S'arduino'
p196
sS'mcu'
p197
S'atmega328p'
p198
sS'f_cpu'
p199
S'16000000L'
p200
sS'variant'
p201
S'eightanaloginputs'
p202
ssS'bootloader'
p203
(dp204
S'extended_fuses'
p205
S'0x05'
p206
sS'high_fuses'
p207
S'0xDA'
p208
sS'low_fuses'
p209
S'0xFF'
p210
sS'lock_bits'
p211
S'0x0F'
p212
sS'file'
p213
S'ATmegaBOOT_168_atmega328.hex'
p214
sS'path'
p215
S'atmega'
p216
sS'unlock_bits'
p217
S'0x3F'
p218
ssS'upload'
p219
(dp220
S'speed'
p221
S'57600'
p222
sS'maximum_size'
p223
S'30720'
p224
sS'protocol'
p225
S'arduino'
p226
ssS'name'
p227
S'Arduino Nano w/ ATmega328'
p228
sg108
S'/usr/share/arduino/hardware/arduino'
p229
saa(lp230
S'nano'
p231
a(dp232
S'build'
p233
(dp234
S'core'
p235
S'arduino'
p236
sS'mcu'
p237
S'atmega168'
p238
sS'f_cpu'
p239
S'16000000L'
p240
sS'variant'
p241
S'eightanaloginputs'
p242
ssS'bootloader'
p243
(dp244
S'extended_fuses'
p245
S'0x00'
p246
sS'high_fuses'
p247
S'0xdd'
p248
sS'low_fuses'
p249
S'0xff'
p250
sS'lock_bits'
p251
S'0x0F'
p252
sS'file'
p253
S'ATmegaBOOT_168_diecimila.hex'
p254
sS'path'
p255
S'atmega'
p256
sS'unlock_bits'
p257
S'0x3F'
p258
ssS'upload'
p259
(dp260
S'speed'
p261
S'19200'
p262
sS'maximum_size'
p263
S'14336'
p264
sS'protocol'
p265
S'arduino'
p266
ssS'name'
p267
S'Arduino Nano w/ ATmega168'
p268
sg108
S'/usr/share/arduino/hardware/arduino'
p269
saa(lp270
S'mega2560'
p271
a(dp272
S'build'
p273
(dp274
S'core'
p275
S'arduino'
p276
sS'mcu'
p277
S'atmega2560'
p278
sS'f_cpu'
p279
S'16000000L'
p280
sS'variant'
p281
S'mega'
p282
ssS'bootloader'
p283
(dp284
S'extended_fuses'
p285
S'0xFD'
p286
sS'high_fuses'
p287
S'0xD8'
p288
sS'low_fuses'
p289
S'0xFF'
p290
sS'lock_bits'
p291
S'0x0F'
p292
sS'file'
p293
S'stk500boot_v2_mega2560.hex'
p294
sS'path'
p295
S'stk500v2'
p296
sS'unlock_bits'
p297
S'0x3F'
p298
ssS'upload'
p299
(dp300
S'speed'
p301
S'115200'
p302
sS'maximum_size'
p303
S'258048'
p304
sS'protocol'
p305
S'stk500v2'
p306
ssS'name'
p307
S'Arduino Mega 2560 or Mega ADK'
p308
sg108
S'/usr/share/arduino/hardware/arduino'
p309
saa(lp310
S'mega'
p311
a(dp312
S'build'
p313
(dp314
S'core'
p315
S'arduino'
p316
sS'mcu'
p317
S'atmega1280'
p318
sS'f_cpu'
p319
S'16000000L'
p320
sS'variant'
p321
S'mega'
p322
ssS'bootloader'
p323
(dp324
S'extended_fuses'
p325
S'0xF5'
p326
sS'high_fuses'
p327
S'0xDA'
p328
sS'low_fuses'
p329
S'0xFF'
p330
sS'lock_bits'
p331
S'0x0F'
p332
sS'file'
p333
S'ATmegaBOOT_168_atmega1280.hex'
p334
sS'path'
p335
S'atmega'
p336
sS'unlock_bits'
p337
S'0x3F'
p338
ssS'upload'
p339
(dp340
S'speed'
p341
S'57600'
p342
sS'maximum_size'
p343
S'126976'
p344
sS'protocol'
p345
S'arduino'
p346
ssS'name'
p347
S'Arduino Mega (ATmega1280)'
p348
sg108
S'/usr/share/arduino/hardware/arduino'
p349
saa(lp350
S'leonardo'
p351
a(dp352
S'build'
p353
(dp354
S'core'
p355
S'arduino'
p356
sS'f_cpu'
p357
S'16000000L'
p358
sS'vid'
p359
S'0x2341'
p360
sS'pid'
p361
S'0x8036'
p362
sS'variant'
p363
S'leonardo'
p364
sS'mcu'
p365
S'atmega32u4'
p366
ssS'bootloader'
p367
(dp368
S'extended_fuses'
p369
S'0xcb'
p370
sS'high_fuses'
p371
S'0xd8'
p372
sS'low_fuses'
p373
S'0xff'
p374
sS'lock_bits'
p375
S'0x2F'
p376
sS'file'
p377
S'Caterina-Leonardo.hex'
p378
sS'path'
p379
S'caterina'
p380
sS'unlock_bits'
p381
S'0x3F'
p382
ssS'upload'
p383
(dp384
S'speed'
p385
S'57600'
p386
sS'maximum_size'
p387
S'28672'
p388
sS'protocol'
p389
S'avr109'
p390
sS'disable_flushing'
p391
S'true'
p392
ssS'name'
p393
S'Arduino Leonardo'
p394
sg108
S'/usr/share/arduino/hardware/arduino'
p395
saa(lp396
S'mini328'
p397
a(dp398
S'build'
p399
(dp400
S'core'
p401
S'arduino'
p402
sS'mcu'
p403
S'atmega328p'
p404
sS'f_cpu'
p405
S'16000000L'
p406
sS'variant'
p407
S'eightanaloginputs'
p408
ssS'bootloader'
p409
(dp410
S'extended_fuses'
p411
S'0x05'
p412
sS'high_fuses'
p413
S'0xd8'
p414
sS'low_fuses'
p415
S'0xff'
p416
sS'lock_bits'
p417
S'0x0F'
p418
sS'file'
p419
S'optiboot_atmega328-Mini.hex'
p420
sS'path'
p421
S'optiboot'
p422
sS'unlock_bits'
p423
S'0x3F'
p424
ssS'upload'
p425
(dp426
S'speed'
p427
S'115200'
p428
sS'maximum_size'
p429
S'28672'
p430
sS'protocol'
p431
S'arduino'
p432
ssS'name'
p433
S'Arduino Mini w/ ATmega328'
p434
sg108
S'/usr/share/arduino/hardware/arduino'
p435
saa(lp436
S'mini'
p437
a(dp438
S'build'
p439
(dp440
S'core'
p441
S'arduino'
p442
sS'mcu'
p443
S'atmega168'
p444
sS'f_cpu'
p445
S'16000000L'
p446
sS'variant'
p447
S'eightanaloginputs'
p448
ssS'bootloader'
p449
(dp450
S'extended_fuses'
p451
S'0x00'
p452
sS'high_fuses'
p453
S'0xdd'
p454
sS'low_fuses'
p455
S'0xff'
p456
sS'lock_bits'
p457
S'0x0F'
p458
sS'file'
p459
S'ATmegaBOOT_168_ng.hex'
p460
sS'path'
p461
S'atmega'
p462
sS'unlock_bits'
p463
S'0x3F'
p464
ssS'upload'
p465
(dp466
S'speed'
p467
S'19200'
p468
sS'maximum_size'
p469
S'14336'
p470
sS'protocol'
p471
S'arduino'
p472
ssS'name'
p473
S'Arduino Mini w/ ATmega168'
p474
sg108
S'/usr/share/arduino/hardware/arduino'
p475
saa(lp476
S'ethernet'
p477
a(dp478
S'build'
p479
(dp480
S'f_cpu'
p481
S'16000000L'
p482
sS'mcu'
p483
S'atmega328p'
p484
sS'variant'
p485
S'standard'
p486
sS'core'
p487
S'arduino'
p488
ssS'bootloader'
p489
(dp490
S'extended_fuses'
p491
S'0x05'
p492
sS'high_fuses'
p493
S'0xde'
p494
sS'low_fuses'
p495
S'0xff'
p496
sS'lock_bits'
p497
S'0x0F'
p498
sS'file'
p499
S'optiboot_atmega328.hex'
p500
sS'path'
p501
S'optiboot'
p502
sS'unlock_bits'
p503
S'0x3F'
p504
ssS'upload'
p505
(dp506
S'speed'
p507
S'115200'
p508
sS'maximum_size'
p509
S'32256'
p510
sS'protocol'
p511
S'arduino'
p512
ssS'name'
p513
S'Arduino Ethernet'
p514
sg108
S'/usr/share/arduino/hardware/arduino'
p515
saa(lp516
S'fio'
p517
a(dp518
S'build'
p519
(dp520
S'core'
p521
S'arduino'
p522
sS'mcu'
p523
S'atmega328p'
p524
sS'f_cpu'
p525
S'8000000L'
p526
sS'variant'
p527
S'eightanaloginputs'
p528
ssS'bootloader'
p529
(dp530
S'extended_fuses'
p531
S'0x05'
p532
sS'high_fuses'
p533
S'0xDA'
p534
sS'low_fuses'
p535
S'0xFF'
p536
sS'lock_bits'
p537
S'0x0F'
p538
sS'file'
p539
S'ATmegaBOOT_168_atmega328_pro_8MHz.hex'
p540
sS'path'
p541
S'arduino:atmega'
p542
sS'unlock_bits'
p543
S'0x3F'
p544
ssS'upload'
p545
(dp546
S'speed'
p547
S'57600'
p548
sS'maximum_size'
p549
S'30720'
p550
sS'protocol'
p551
S'arduino'
p552
ssS'name'
p553
S'Arduino Fio'
p554
sg108
S'/usr/share/arduino/hardware/arduino'
p555
saa(lp556
S'bt328'
p557
a(dp558
S'build'
p559
(dp560
S'core'
p561
S'arduino'
p562
sS'mcu'
p563
S'atmega328p'
p564
sS'f_cpu'
p565
S'16000000L'
p566
sS'variant'
p567
S'eightanaloginputs'
p568
ssS'bootloader'
p569
(dp570
S'extended_fuses'
p571
S'0x05'
p572
sS'high_fuses'
p573
S'0xd8'
p574
sS'low_fuses'
p575
S'0xff'
p576
sS'lock_bits'
p577
S'0x0F'
p578
sS'file'
p579
S'ATmegaBOOT_168_atmega328_bt.hex'
p580
sS'path'
p581
S'bt'
p582
sS'unlock_bits'
p583
S'0x3F'
p584
ssS'upload'
p585
(dp586
S'speed'
p587
S'19200'
p588
sS'maximum_size'
p589
S'28672'
p590
sS'protocol'
p591
S'arduino'
p592
sS'disable_flushing'
p593
S'true'
p594
ssS'name'
p595
S'Arduino BT w/ ATmega328'
p596
sg108
S'/usr/share/arduino/hardware/arduino'
p597
saa(lp598
S'bt'
p599
a(dp600
S'build'
p601
(dp602
S'core'
p603
S'arduino'
p604
sS'mcu'
p605
S'atmega168'
p606
sS'f_cpu'
p607
S'16000000L'
p608
sS'variant'
p609
S'eightanaloginputs'
p610
ssS'bootloader'
p611
(dp612
S'extended_fuses'
p613
S'0x00'
p614
sS'high_fuses'
p615
S'0xdd'
p616
sS'low_fuses'
p617
S'0xff'
p618
sS'lock_bits'
p619
S'0x0F'
p620
sS'file'
p621
S'ATmegaBOOT_168.hex'
p622
sS'path'
p623
S'bt'
p624
sS'unlock_bits'
p625
S'0x3F'
p626
ssS'upload'
p627
(dp628
S'speed'
p629
S'19200'
p630
sS'maximum_size'
p631
S'14336'
p632
sS'protocol'
p633
S'arduino'
p634
sS'disable_flushing'
p635
S'true'
p636
ssS'name'
p637
S'Arduino BT w/ ATmega168'
p638
sg108
S'/usr/share/arduino/hardware/arduino'
p639
saa(lp640
S'lilypad328'
p641
a(dp642
S'build'
p643
(dp644
S'core'
p645
S'arduino'
p646
sS'mcu'
p647
S'atmega328p'
p648
sS'f_cpu'
p649
S'8000000L'
p650
sS'variant'
p651
S'standard'
p652
ssS'bootloader'
p653
(dp654
S'extended_fuses'
p655
S'0x05'
p656
sS'high_fuses'
p657
S'0xDA'
p658
sS'low_fuses'
p659
S'0xFF'
p660
sS'lock_bits'
p661
S'0x0F'
p662
sS'file'
p663
S'ATmegaBOOT_168_atmega328_pro_8MHz.hex'
p664
sS'path'
p665
S'atmega'
p666
sS'unlock_bits'
p667
S'0x3F'
p668
ssS'upload'
p669
(dp670
S'speed'
p671
S'57600'
p672
sS'maximum_size'
p673
S'30720'
p674
sS'protocol'
p675
S'arduino'
p676
ssS'name'
p677
S'LilyPad Arduino w/ ATmega328'
p678
sg108
S'/usr/share/arduino/hardware/arduino'
p679
saa(lp680
S'lilypad'
p681
a(dp682
S'build'
p683
(dp684
S'core'
p685
S'arduino'
p686
sS'mcu'
p687
S'atmega168'
p688
sS'f_cpu'
p689
S'8000000L'
p690
sS'variant'
p691
S'standard'
p692
ssS'bootloader'
p693
(dp694
S'extended_fuses'
p695
S'0x00'
p696
sS'high_fuses'
p697
S'0xdd'
p698
sS'low_fuses'
p699
S'0xe2'
p700
sS'lock_bits'
p701
S'0x0F'
p702
sS'file'
p703
S'LilyPadBOOT_168.hex'
p704
sS'path'
p705
S'lilypad'
p706
sS'unlock_bits'
p707
S'0x3F'
p708
ssS'upload'
p709
(dp710
S'speed'
p711
S'19200'
p712
sS'maximum_size'
p713
S'14336'
p714
sS'protocol'
p715
S'arduino'
p716
ssS'name'
p717
S'LilyPad Arduino w/ ATmega168'
p718
sg108
S'/usr/share/arduino/hardware/arduino'
p719
saa(lp720
S'pro5v328'
p721
a(dp722
S'build'
p723
(dp724
S'core'
p725
S'arduino'
p726
sS'mcu'
p727
S'atmega328p'
p728
sS'f_cpu'
p729
S'16000000L'
p730
sS'variant'
p731
S'standard'
p732
ssS'bootloader'
p733
(dp734
S'extended_fuses'
p735
S'0x05'
p736
sS'high_fuses'
p737
S'0xDA'
p738
sS'low_fuses'
p739
S'0xFF'
p740
sS'lock_bits'
p741
S'0x0F'
p742
sS'file'
p743
S'ATmegaBOOT_168_atmega328.hex'
p744
sS'path'
p745
S'atmega'
p746
sS'unlock_bits'
p747
S'0x3F'
p748
ssS'upload'
p749
(dp750
S'speed'
p751
S'57600'
p752
sS'maximum_size'
p753
S'30720'
p754
sS'protocol'
p755
S'arduino'
p756
ssS'name'
p757
S'Arduino Pro or Pro Mini (5V, 16 MHz) w/ ATmega328'
p758
sg108
S'/usr/share/arduino/hardware/arduino'
p759
saa(lp760
S'pro5v'
p761
a(dp762
S'build'
p763
(dp764
S'core'
p765
S'arduino'
p766
sS'mcu'
p767
S'atmega168'
p768
sS'f_cpu'
p769
S'16000000L'
p770
sS'variant'
p771
S'standard'
p772
ssS'bootloader'
p773
(dp774
S'extended_fuses'
p775
S'0x00'
p776
sS'high_fuses'
p777
S'0xdd'
p778
sS'low_fuses'
p779
S'0xff'
p780
sS'lock_bits'
p781
S'0x0F'
p782
sS'file'
p783
S'ATmegaBOOT_168_diecimila.hex'
p784
sS'path'
p785
S'atmega'
p786
sS'unlock_bits'
p787
S'0x3F'
p788
ssS'upload'
p789
(dp790
S'speed'
p791
S'19200'
p792
sS'maximum_size'
p793
S'14336'
p794
sS'protocol'
p795
S'arduino'
p796
ssS'name'
p797
S'Arduino Pro or Pro Mini (5V, 16 MHz) w/ ATmega168'
p798
sg108
S'/usr/share/arduino/hardware/arduino'
p799
saa(lp800
S'pro328'
p801
a(dp802
S'build'
p803
(dp804
S'core'
p805
S'arduino'
p806
sS'mcu'
p807
S'atmega328p'
p808
sS'f_cpu'
p809
S'8000000L'
p810
sS'variant'
p811
S'standard'
p812
ssS'bootloader'
p813
(dp814
S'extended_fuses'
p815
S'0x05'
p816
sS'high_fuses'
p817
S'0xDA'
p818
sS'low_fuses'
p819
S'0xFF'
p820
sS'lock_bits'
p821
S'0x0F'
p822
sS'file'
p823
S'ATmegaBOOT_168_atmega328_pro_8MHz.hex'
p824
sS'path'
p825
S'atmega'
p826
sS'unlock_bits'
p827
S'0x3F'
p828
ssS'upload'
p829
(dp830
S'speed'
p831
S'57600'
p832
sS'maximum_size'
p833
S'30720'
p834
sS'protocol'
p835
S'arduino'
p836
ssS'name'
p837
S'Arduino Pro or Pro Mini (3.3V, 8 MHz) w/ ATmega328'
p838
sg108
S'/usr/share/arduino/hardware/arduino'
p839
saa(lp840
S'pro'
p841
a(dp842
S'build'
p843
(dp844
S'core'
p845
S'arduino'
p846
sS'mcu'
p847
S'atmega168'
p848
sS'f_cpu'
p849
S'8000000L'
p850
sS'variant'
p851
S'standard'
p852
ssS'bootloader'
p853
(dp854
S'extended_fuses'
p855
S'0x00'
p856
sS'high_fuses'
p857
S'0xdd'
p858
sS'low_fuses'
p859
S'0xc6'
p860
sS'lock_bits'
p861
S'0x0F'
p862
sS'file'
p863
S'ATmegaBOOT_168_pro_8MHz.hex'
p864
sS'path'
p865
S'atmega'
p866
sS'unlock_bits'
p867
S'0x3F'
p868
ssS'upload'
p869
(dp870
S'speed'
p871
S'19200'
p872
sS'maximum_size'
p873
S'14336'
p874
sS'protocol'
p875
S'arduino'
p876
ssS'name'
p877
S'Arduino Pro or Pro Mini (3.3V, 8 MHz) w/ ATmega168'
p878
sg108
S'/usr/share/arduino/hardware/arduino'
p879
saa(lp880
S'atmega168'
p881
a(dp882
S'build'
p883
(dp884
S'core'
p885
S'arduino'
p886
sS'mcu'
p887
S'atmega168'
p888
sS'f_cpu'
p889
S'16000000L'
p890
sS'variant'
p891
S'standard'
p892
ssS'bootloader'
p893
(dp894
S'extended_fuses'
p895
S'0x00'
p896
sS'high_fuses'
p897
S'0xdd'
p898
sS'low_fuses'
p899
S'0xff'
p900
sS'lock_bits'
p901
S'0x0F'
p902
sS'file'
p903
S'ATmegaBOOT_168_ng.hex'
p904
sS'path'
p905
S'atmega'
p906
sS'unlock_bits'
p907
S'0x3F'
p908
ssS'upload'
p909
(dp910
S'speed'
p911
S'19200'
p912
sS'maximum_size'
p913
S'14336'
p914
sS'protocol'
p915
S'arduino'
p916
ssS'name'
p917
S'Arduino NG or older w/ ATmega168'
p918
sg108
S'/usr/share/arduino/hardware/arduino'
p919
saa(lp920
S'atmega8'
p921
a(dp922
S'build'
p923
(dp924
S'core'
p925
S'arduino'
p926
sS'mcu'
p927
S'atmega8'
p928
sS'f_cpu'
p929
S'16000000L'
p930
sS'variant'
p931
S'standard'
p932
ssS'bootloader'
p933
(dp934
S'high_fuses'
p935
S'0xca'
p936
sS'low_fuses'
p937
S'0xdf'
p938
sS'lock_bits'
p939
S'0x0F'
p940
sS'file'
p941
S'ATmegaBOOT.hex'
p942
sS'path'
p943
S'atmega8'
p944
sS'unlock_bits'
p945
S'0x3F'
p946
ssS'upload'
p947
(dp948
S'speed'
p949
S'19200'
p950
sS'maximum_size'
p951
S'7168'
p952
sS'protocol'
p953
S'arduino'
p954
ssS'name'
p955
S'Arduino NG or older w/ ATmega8'
p956
sg108
S'/usr/share/arduino/hardware/arduino'
p957
saatp958
Rp959
(dp960
S'default'
p961
S'uno'
p962
sbtp963
a(S'used_libs'
p964
(lp965
S'/usr/share/arduino/libraries/EEPROM'
p966
aS'/usr/share/arduino/libraries/Wire'
p967
aS'/usr/share/arduino/libraries/Keypad'
p968
aS'lib/Keypad'
p969
aS'/usr/share/arduino/hardware/arduino/cores/arduino'
p970
atp971
a(S'make'
p972
S'/usr/bin/make'
p973
tp974
a(S'arduino_libraries_dir'
p975
S'/usr/share/arduino/libraries'
p976
tp977
a(S'cc'
p978
S'/usr/bin/avr-gcc'
p979
tp980
a(S'cflags'
p981
g2
(g3
g4
(lp982
tp983
Rp984
tp985
a(S'cxxflags'
p986
g2
(g3
g4
(lp987
S'-fno-exceptions'
p988
atp989
Rp990
tp991
a(S'arduino_variants_dir'
p992
S'/usr/share/arduino/hardware/arduino/variants'
p993
tp994
a(S'serial'
p995
S'/usr/bin/picocom'
p996
tp997
a(S'stty'
p998
S'/bin/stty'
p999
tp1000
a(S'version.txt'
p1001
S'/usr/share/arduino/lib/version.txt'
p1002
tp1003
a(S'arduino_core_dir'
p1004
g970
tp1005
a(S'boards.txt'
p1006
(lp1007
S'/usr/share/arduino/hardware/arduino/boards.txt'
p1008
atp1009
a(S'avrdude.conf'
p1010
S'/usr/share/arduino/hardware/tools/avrdude.conf'
p1011
tp1012
a(S'deps'
p1013
g2
(g3
g4
(lp1014
S'.build/uno/src/dependencies.d'
p1015
aS'.build/uno/arduino/dependencies.d'
p1016
aS'.build/uno/Keypad/dependencies.d'
p1017
aS'.build/uno/EEPROM/dependencies.d'
p1018
aS'.build/uno/Keypad/dependencies.d'
p1019
aS'.build/uno/Wire/dependencies.d'
p1020
atp1021
Rp1022
tp1023
a.